target datalayout = "e-m:e-p270:32:32-p271:32:32-p272:64:64-i64:64-i128:128-f80:128-n8:16:32:64-S128"
target triple = "x86_64-pc-linux-gnu"

%struct.H5D_farray_filt_elmt_t = type { i64, i32, i32 }
%struct.H5D_chk_idx_info_t = type { ptr, ptr, ptr, ptr }
%struct.H5O_storage_chunk_t = type { i32, i64, ptr, %union.anon.4 }
%union.anon.4 = type { %struct.H5O_storage_chunk_btree_t }
%struct.H5O_storage_chunk_btree_t = type { i64, ptr }
%struct.H5O_storage_chunk_farray_t = type { i64, ptr }
%struct.H5O_pline_t = type { %struct.H5O_shared_t, i32, i64, i64, ptr }
%struct.H5O_shared_t = type { i32, ptr, i32, %union.anon.5 }
%union.anon.5 = type { %struct.H5O_mesg_loc_t }
%struct.H5O_mesg_loc_t = type { i32, i64 }
%struct.H5O_layout_chunk_t = type { i32, i8, i32, [33 x i32], i32, i32, i64, i64, [33 x i64], [33 x i64], [33 x i64], [33 x i64], %union.anon.0 }
%union.anon.0 = type { %struct.H5O_layout_chunk_earray_t }
%struct.H5O_layout_chunk_earray_t = type { %struct.anon.1, i32, [33 x i32], [33 x i64], [33 x i64] }
%struct.anon.1 = type { i8, i8, i8, i8, i8 }
%struct.H5O_storage_chunk_bt2_t = type { i64, ptr }
%struct.H5D_chunk_ud_t = type { %struct.H5D_chunk_common_ud_t, i32, %struct.H5F_block_t, i32, i8, i64 }
%struct.H5D_chunk_common_ud_t = type { ptr, ptr, ptr }
%struct.H5F_block_t = type { i64, i64 }

@.str.2 = private unnamed_addr constant [103 x i8] c"generated/home/dtcxzyw/WorkSpace/Projects/compilers/llvm-opt-benchmark/bench/hdf5/hdf5/src/H5Dfarray.c\00", align 1
@H5E_DATASET_g = external global i64, align 8
@H5E_CANTOPENOBJ_g = external global i64, align 8
@H5E_CANTGET_g = external global i64, align 8
@.str.20 = private unnamed_addr constant [23 x i8] c"can't open fixed array\00", align 1
@__func__.H5D__farray_idx_get_addr = private unnamed_addr constant [25 x i8] c"H5D__farray_idx_get_addr\00", align 1
@.str.26 = private unnamed_addr constant [21 x i8] c"can't get chunk info\00", align 1
@.str.27 = private unnamed_addr constant [24 x i8] c"can't get chunk address\00", align 1

; Function Attrs: nounwind uwtable
define internal i32 @H5D__farray_idx_get_addr(ptr noundef %0, ptr noundef %1) #0 {
  %3 = alloca ptr, align 8
  %4 = alloca ptr, align 8
  %5 = alloca ptr, align 8
  %6 = alloca i64, align 8
  %7 = alloca i32, align 4
  %8 = alloca i8, align 1
  %9 = alloca %struct.H5D_farray_filt_elmt_t, align 8
  store ptr %0, ptr %3, align 8
  store ptr %1, ptr %4, align 8
  store i32 0, ptr %7, align 4
  store i8 0, ptr %8, align 1
  %10 = load ptr, ptr %3, align 8
  %11 = getelementptr inbounds %struct.H5D_chk_idx_info_t, ptr %10, i32 0, i32 3
  %12 = load ptr, ptr %11, align 8
  %13 = getelementptr inbounds %struct.H5O_storage_chunk_t, ptr %12, i32 0, i32 3
  %14 = getelementptr inbounds %struct.H5O_storage_chunk_bt2_t, ptr %13, i32 0, i32 1
  %15 = load ptr, ptr %14, align 8
  %16 = icmp ne ptr null, %15
  br i1 %16, label %37, label %17

17:                                               ; preds = %2
  %18 = load ptr, ptr %3, align 8
  %19 = call i32 @H5D__farray_idx_open(ptr noundef %18)
  %20 = icmp slt i32 %19, 0
  br i1 %20, label %21, label %36

21:                                               ; preds = %17
  br label %22

22:                                               ; preds = %21
  br label %23

23:                                               ; preds = %22
  br label %24

24:                                               ; preds = %23
  %25 = load i64, ptr @H5E_DATASET_g, align 8
  %26 = load i64, ptr @H5E_CANTOPENOBJ_g, align 8
  %27 = call i32 (ptr, ptr, i32, i64, i64, ptr, ...) @H5E_printf_stack(ptr noundef @.str.2, ptr noundef @__func__.H5D__farray_idx_get_addr, i32 noundef 1038, i64 noundef %25, i64 noundef %26, ptr noundef @.str.20)
  br label %28

28:                                               ; preds = %24
  store i8 1, ptr %8, align 1
  %29 = load i8, ptr %8, align 1
  %30 = trunc i8 %29 to i1
  %31 = zext i1 %30 to i8
  store i8 %31, ptr %8, align 1
  br label %32

32:                                               ; preds = %28
  br label %33

33:                                               ; preds = %32
  store i32 -1, ptr %7, align 4
  br label %162

34:                                               ; No predecessors!
  br label %35

35:                                               ; preds = %34
  br label %36

36:                                               ; preds = %35, %17
  br label %48

37:                                               ; preds = %2
  %38 = load ptr, ptr %3, align 8
  %39 = getelementptr inbounds %struct.H5D_chk_idx_info_t, ptr %38, i32 0, i32 3
  %40 = load ptr, ptr %39, align 8
  %41 = getelementptr inbounds %struct.H5O_storage_chunk_t, ptr %40, i32 0, i32 3
  %42 = getelementptr inbounds %struct.H5O_storage_chunk_farray_t, ptr %41, i32 0, i32 1
  %43 = load ptr, ptr %42, align 8
  %44 = load ptr, ptr %3, align 8
  %45 = getelementptr inbounds %struct.H5D_chk_idx_info_t, ptr %44, i32 0, i32 0
  %46 = load ptr, ptr %45, align 8
  %47 = call i32 @H5FA_patch_file(ptr noundef %43, ptr noundef %46)
  br label %48

48:                                               ; preds = %37, %36
  %49 = load ptr, ptr %3, align 8
  %50 = getelementptr inbounds %struct.H5D_chk_idx_info_t, ptr %49, i32 0, i32 3
  %51 = load ptr, ptr %50, align 8
  %52 = getelementptr inbounds %struct.H5O_storage_chunk_t, ptr %51, i32 0, i32 3
  %53 = getelementptr inbounds %struct.H5O_storage_chunk_farray_t, ptr %52, i32 0, i32 1
  %54 = load ptr, ptr %53, align 8
  store ptr %54, ptr %5, align 8
  %55 = load ptr, ptr %3, align 8
  %56 = getelementptr inbounds %struct.H5D_chk_idx_info_t, ptr %55, i32 0, i32 2
  %57 = load ptr, ptr %56, align 8
  %58 = getelementptr inbounds %struct.H5O_layout_chunk_t, ptr %57, i32 0, i32 2
  %59 = load i32, ptr %58, align 8
  %60 = sub i32 %59, 1
  %61 = load ptr, ptr %3, align 8
  %62 = getelementptr inbounds %struct.H5D_chk_idx_info_t, ptr %61, i32 0, i32 2
  %63 = load ptr, ptr %62, align 8
  %64 = getelementptr inbounds %struct.H5O_layout_chunk_t, ptr %63, i32 0, i32 11
  %65 = getelementptr inbounds [33 x i64], ptr %64, i64 0, i64 0
  %66 = load ptr, ptr %4, align 8
  %67 = getelementptr inbounds %struct.H5D_chunk_ud_t, ptr %66, i32 0, i32 0
  %68 = getelementptr inbounds %struct.H5D_chunk_common_ud_t, ptr %67, i32 0, i32 2
  %69 = load ptr, ptr %68, align 8
  %70 = call i64 @H5VM_array_offset_pre(i32 noundef %60, ptr noundef %65, ptr noundef %69)
  store i64 %70, ptr %6, align 8
  %71 = load i64, ptr %6, align 8
  %72 = load ptr, ptr %4, align 8
  %73 = getelementptr inbounds %struct.H5D_chunk_ud_t, ptr %72, i32 0, i32 5
  store i64 %71, ptr %73, align 8
  %74 = load ptr, ptr %3, align 8
  %75 = getelementptr inbounds %struct.H5D_chk_idx_info_t, ptr %74, i32 0, i32 1
  %76 = load ptr, ptr %75, align 8
  %77 = getelementptr inbounds %struct.H5O_pline_t, ptr %76, i32 0, i32 3
  %78 = load i64, ptr %77, align 8
  %79 = icmp ugt i64 %78, 0
  br i1 %79, label %80, label %116

80:                                               ; preds = %48
  %81 = load ptr, ptr %5, align 8
  %82 = load i64, ptr %6, align 8
  %83 = call i32 @H5FA_get(ptr noundef %81, i64 noundef %82, ptr noundef %9)
  %84 = icmp slt i32 %83, 0
  br i1 %84, label %85, label %100

85:                                               ; preds = %80
  br label %86

86:                                               ; preds = %85
  br label %87

87:                                               ; preds = %86
  br label %88

88:                                               ; preds = %87
  %89 = load i64, ptr @H5E_DATASET_g, align 8
  %90 = load i64, ptr @H5E_CANTGET_g, align 8
  %91 = call i32 (ptr, ptr, i32, i64, i64, ptr, ...) @H5E_printf_stack(ptr noundef @.str.2, ptr noundef @__func__.H5D__farray_idx_get_addr, i32 noundef 1058, i64 noundef %89, i64 noundef %90, ptr noundef @.str.26)
  br label %92

92:                                               ; preds = %88
  store i8 1, ptr %8, align 1
  %93 = load i8, ptr %8, align 1
  %94 = trunc i8 %93 to i1
  %95 = zext i1 %94 to i8
  store i8 %95, ptr %8, align 1
  br label %96

96:                                               ; preds = %92
  br label %97

97:                                               ; preds = %96
  store i32 -1, ptr %7, align 4
  br label %162

98:                                               ; No predecessors!
  br label %99

99:                                               ; preds = %98
  br label %100

100:                                              ; preds = %99, %80
  %101 = getelementptr inbounds %struct.H5D_farray_filt_elmt_t, ptr %9, i32 0, i32 0
  %102 = load i64, ptr %101, align 8
  %103 = load ptr, ptr %4, align 8
  %104 = getelementptr inbounds %struct.H5D_chunk_ud_t, ptr %103, i32 0, i32 2
  %105 = getelementptr inbounds %struct.H5F_block_t, ptr %104, i32 0, i32 0
  store i64 %102, ptr %105, align 8
  %106 = getelementptr inbounds %struct.H5D_farray_filt_elmt_t, ptr %9, i32 0, i32 1
  %107 = load i32, ptr %106, align 8
  %108 = zext i32 %107 to i64
  %109 = load ptr, ptr %4, align 8
  %110 = getelementptr inbounds %struct.H5D_chunk_ud_t, ptr %109, i32 0, i32 2
  %111 = getelementptr inbounds %struct.H5F_block_t, ptr %110, i32 0, i32 1
  store i64 %108, ptr %111, align 8
  %112 = getelementptr inbounds %struct.H5D_farray_filt_elmt_t, ptr %9, i32 0, i32 2
  %113 = load i32, ptr %112, align 4
  %114 = load ptr, ptr %4, align 8
  %115 = getelementptr inbounds %struct.H5D_chunk_ud_t, ptr %114, i32 0, i32 3
  store i32 %113, ptr %115, align 8
  br label %151

116:                                              ; preds = %48
  %117 = load ptr, ptr %5, align 8
  %118 = load i64, ptr %6, align 8
  %119 = load ptr, ptr %4, align 8
  %120 = getelementptr inbounds %struct.H5D_chunk_ud_t, ptr %119, i32 0, i32 2
  %121 = getelementptr inbounds %struct.H5F_block_t, ptr %120, i32 0, i32 0
  %122 = call i32 @H5FA_get(ptr noundef %117, i64 noundef %118, ptr noundef %121)
  %123 = icmp slt i32 %122, 0
  br i1 %123, label %124, label %139

124:                                              ; preds = %116
  br label %125

125:                                              ; preds = %124
  br label %126

126:                                              ; preds = %125
  br label %127

127:                                              ; preds = %126
  %128 = load i64, ptr @H5E_DATASET_g, align 8
  %129 = load i64, ptr @H5E_CANTGET_g, align 8
  %130 = call i32 (ptr, ptr, i32, i64, i64, ptr, ...) @H5E_printf_stack(ptr noundef @.str.2, ptr noundef @__func__.H5D__farray_idx_get_addr, i32 noundef 1068, i64 noundef %128, i64 noundef %129, ptr noundef @.str.27)
  br label %131

131:                                              ; preds = %127
  store i8 1, ptr %8, align 1
  %132 = load i8, ptr %8, align 1
  %133 = trunc i8 %132 to i1
  %134 = zext i1 %133 to i8
  store i8 %134, ptr %8, align 1
  br label %135

135:                                              ; preds = %131
  br label %136

136:                                              ; preds = %135
  store i32 -1, ptr %7, align 4
  br label %162

137:                                              ; No predecessors!
  br label %138

138:                                              ; preds = %137
  br label %139

139:                                              ; preds = %138, %116
  %140 = load ptr, ptr %3, align 8
  %141 = getelementptr inbounds %struct.H5D_chk_idx_info_t, ptr %140, i32 0, i32 2
  %142 = load ptr, ptr %141, align 8
  %143 = getelementptr inbounds %struct.H5O_layout_chunk_t, ptr %142, i32 0, i32 5
  %144 = load i32, ptr %143, align 4
  %145 = zext i32 %144 to i64
  %146 = load ptr, ptr %4, align 8
  %147 = getelementptr inbounds %struct.H5D_chunk_ud_t, ptr %146, i32 0, i32 2
  %148 = getelementptr inbounds %struct.H5F_block_t, ptr %147, i32 0, i32 1
  store i64 %145, ptr %148, align 8
  %149 = load ptr, ptr %4, align 8
  %150 = getelementptr inbounds %struct.H5D_chunk_ud_t, ptr %149, i32 0, i32 3
  store i32 0, ptr %150, align 8
  br label %151

151:                                              ; preds = %139, %100
  %152 = load ptr, ptr %4, align 8
  %153 = getelementptr inbounds %struct.H5D_chunk_ud_t, ptr %152, i32 0, i32 2
  %154 = getelementptr inbounds %struct.H5F_block_t, ptr %153, i32 0, i32 0
  %155 = load i64, ptr %154, align 8
  %156 = icmp ne i64 %155, -1
  br i1 %156, label %161, label %157

157:                                              ; preds = %151
  %158 = load ptr, ptr %4, align 8
  %159 = getelementptr inbounds %struct.H5D_chunk_ud_t, ptr %158, i32 0, i32 2
  %160 = getelementptr inbounds %struct.H5F_block_t, ptr %159, i32 0, i32 1
  store i64 0, ptr %160, align 8
  br label %161

161:                                              ; preds = %157, %151
  br label %162

162:                                              ; preds = %161, %136, %97, %33
  %163 = load i32, ptr %7, align 4
  ret i32 %163
}