; Function Attrs: nounwind uwtable
define internal range(i32 -1, 1) i32 @H5D__farray_idx_get_addr(ptr nocapture noundef readonly %0, ptr noundef %1) #1 {
  %3 = alloca %struct.H5D_farray_filt_elmt_t, align 8
  %4 = getelementptr inbounds i8, ptr %0, i64 24
  %5 = load ptr, ptr %4, align 8
  %6 = getelementptr inbounds i8, ptr %5, i64 32
  %7 = load ptr, ptr %6, align 8
  %.not = icmp eq ptr %7, null
  br i1 %.not, label %8, label %15

8:                                                ; preds = %2
  %9 = tail call i32 @H5D__farray_idx_open(ptr noundef nonnull %0)
  %10 = icmp slt i32 %9, 0
  br i1 %10, label %11, label %18

11:                                               ; preds = %8
  %12 = load i64, ptr @H5E_DATASET_g, align 8
  %13 = load i64, ptr @H5E_CANTOPENOBJ_g, align 8
  %14 = tail call i32 (ptr, ptr, i32, i64, i64, ptr, ...) @H5E_printf_stack(ptr noundef nonnull @.str.2, ptr noundef nonnull @__func__.H5D__farray_idx_get_addr, i32 noundef 1038, i64 noundef %12, i64 noundef %13, ptr noundef nonnull @.str.20) #11
  br label %72

15:                                               ; preds = %2
  %16 = load ptr, ptr %0, align 8
  %17 = tail call i32 @H5FA_patch_file(ptr noundef nonnull %7, ptr noundef %16) #11
  br label %18

18:                                               ; preds = %8, %15
  %19 = load ptr, ptr %4, align 8
  %20 = getelementptr inbounds i8, ptr %19, i64 32
  %21 = load ptr, ptr %20, align 8
  %22 = getelementptr inbounds i8, ptr %0, i64 16
  %23 = load ptr, ptr %22, align 8
  %24 = getelementptr inbounds i8, ptr %23, i64 8
  %25 = load i32, ptr %24, align 8
  %26 = add i32 %25, -1
  %27 = getelementptr inbounds i8, ptr %23, i64 960
  %28 = getelementptr inbounds i8, ptr %1, i64 16
  %29 = load ptr, ptr %28, align 8
  %30 = tail call i64 @H5VM_array_offset_pre(i32 noundef %26, ptr noundef nonnull %27, ptr noundef %29) #11
  %31 = getelementptr inbounds i8, ptr %1, i64 56
  store i64 %30, ptr %31, align 8
  %32 = getelementptr inbounds i8, ptr %0, i64 8
  %33 = load ptr, ptr %32, align 8
  %34 = getelementptr inbounds i8, ptr %33, i64 56
  %35 = load i64, ptr %34, align 8
  %.not28 = icmp eq i64 %35, 0
  br i1 %.not28, label %53, label %36

36:                                               ; preds = %18
  %37 = call i32 @H5FA_get(ptr noundef %21, i64 noundef %30, ptr noundef nonnull %3) #11
  %38 = icmp slt i32 %37, 0
  br i1 %38, label %39, label %43

39:                                               ; preds = %36
  %40 = load i64, ptr @H5E_DATASET_g, align 8
  %41 = load i64, ptr @H5E_CANTGET_g, align 8
  %42 = call i32 (ptr, ptr, i32, i64, i64, ptr, ...) @H5E_printf_stack(ptr noundef nonnull @.str.2, ptr noundef nonnull @__func__.H5D__farray_idx_get_addr, i32 noundef 1058, i64 noundef %40, i64 noundef %41, ptr noundef nonnull @.str.26) #11
  br label %72

43:                                               ; preds = %36
  %44 = load i64, ptr %3, align 8
  %45 = getelementptr inbounds i8, ptr %1, i64 32
  store i64 %44, ptr %45, align 8
  %46 = getelementptr inbounds i8, ptr %3, i64 8
  %47 = load i32, ptr %46, align 8
  %48 = zext i32 %47 to i64
  %49 = getelementptr inbounds i8, ptr %1, i64 40
  store i64 %48, ptr %49, align 8
  %50 = getelementptr inbounds i8, ptr %3, i64 12
  %51 = load i32, ptr %50, align 4
  %52 = getelementptr inbounds i8, ptr %1, i64 48
  store i32 %51, ptr %52, align 8
  br label %68

53:                                               ; preds = %18
  %54 = getelementptr inbounds i8, ptr %1, i64 32
  %55 = tail call i32 @H5FA_get(ptr noundef %21, i64 noundef %30, ptr noundef nonnull %54) #11
  %56 = icmp slt i32 %55, 0
  br i1 %56, label %57, label %61

57:                                               ; preds = %53
  %58 = load i64, ptr @H5E_DATASET_g, align 8
  %59 = load i64, ptr @H5E_CANTGET_g, align 8
  %60 = tail call i32 (ptr, ptr, i32, i64, i64, ptr, ...) @H5E_printf_stack(ptr noundef nonnull @.str.2, ptr noundef nonnull @__func__.H5D__farray_idx_get_addr, i32 noundef 1068, i64 noundef %58, i64 noundef %59, ptr noundef nonnull @.str.27) #11
  br label %72

61:                                               ; preds = %53
  %62 = load ptr, ptr %22, align 8
  %63 = getelementptr inbounds i8, ptr %62, i64 148
  %64 = load i32, ptr %63, align 4
  %65 = zext i32 %64 to i64
  %66 = getelementptr inbounds i8, ptr %1, i64 40
  store i64 %65, ptr %66, align 8
  %67 = getelementptr inbounds i8, ptr %1, i64 48
  store i32 0, ptr %67, align 8
  %.pre = load i64, ptr %54, align 8
  br label %68

68:                                               ; preds = %61, %43
  %69 = phi i64 [ %.pre, %61 ], [ %44, %43 ]
  %.not29 = icmp eq i64 %69, -1
  br i1 %.not29, label %70, label %72

70:                                               ; preds = %68
  %71 = getelementptr inbounds i8, ptr %1, i64 40
  store i64 0, ptr %71, align 8
  br label %72

72:                                               ; preds = %68, %70, %57, %39, %11
  %.0 = phi i32 [ -1, %39 ], [ 0, %68 ], [ 0, %70 ], [ -1, %57 ], [ -1, %11 ]
  ret i32 %.0
}